; Function Attrs: nounwind uwtable
define void @ERR_clear_error() local_unnamed_addr #0 {
  %1 = tail call ptr @ossl_err_get_state_int()
  %2 = icmp eq ptr %1, null
  br i1 %2, label %32, label %.preheader

.preheader:                                       ; preds = %0
  %3 = getelementptr inbounds nuw i8, ptr %1, i64 512
  %4 = getelementptr inbounds nuw i8, ptr %1, i64 64
  %5 = getelementptr inbounds nuw i8, ptr %1, i64 128
  %6 = getelementptr inbounds nuw i8, ptr %1, i64 704
  %7 = getelementptr inbounds nuw i8, ptr %1, i64 576
  %8 = getelementptr inbounds nuw i8, ptr %1, i64 256
  %9 = getelementptr inbounds nuw i8, ptr %1, i64 384
  %10 = getelementptr inbounds nuw i8, ptr %1, i64 768
  br label %11

11:                                               ; preds = %.preheader, %err_clear.exit
  %indvars.iv = phi i64 [ 0, %.preheader ], [ %indvars.iv.next, %err_clear.exit ]
  %12 = getelementptr inbounds nuw [16 x i32], ptr %3, i64 0, i64 %indvars.iv
  %13 = load i32, ptr %12, align 4, !tbaa !3
  %14 = and i32 %13, 1
  %.not.i.i = icmp eq i32 %14, 0
  %15 = getelementptr inbounds nuw [16 x ptr], ptr %8, i64 0, i64 %indvars.iv
  br i1 %.not.i.i, label %19, label %16

16:                                               ; preds = %11
  %17 = load ptr, ptr %15, align 8, !tbaa !7
  %.not23.i.i = icmp eq ptr %17, null
  br i1 %.not23.i.i, label %err_clear.exit, label %18

18:                                               ; preds = %16
  store i8 0, ptr %17, align 1, !tbaa !22
  br label %.sink.split.i.i

19:                                               ; preds = %11
  store ptr null, ptr %15, align 8, !tbaa !7
  %20 = getelementptr inbounds nuw [16 x i64], ptr %9, i64 0, i64 %indvars.iv
  store i64 0, ptr %20, align 8, !tbaa !10
  br label %.sink.split.i.i

.sink.split.i.i:                                  ; preds = %19, %18
  %.sink.i.i = phi i32 [ 1, %18 ], [ 0, %19 ]
  store i32 %.sink.i.i, ptr %12, align 4, !tbaa !3
  br label %err_clear.exit

err_clear.exit:                                   ; preds = %16, %.sink.split.i.i
  %21 = getelementptr inbounds nuw [16 x i32], ptr %4, i64 0, i64 %indvars.iv
  store i32 0, ptr %21, align 4, !tbaa !3
  %22 = getelementptr inbounds nuw [16 x i32], ptr %1, i64 0, i64 %indvars.iv
  store i32 0, ptr %22, align 4, !tbaa !3
  %23 = getelementptr inbounds nuw [16 x i64], ptr %5, i64 0, i64 %indvars.iv
  store i64 0, ptr %23, align 8, !tbaa !10
  %24 = getelementptr inbounds nuw [16 x i32], ptr %6, i64 0, i64 %indvars.iv
  store i32 -1, ptr %24, align 4, !tbaa !3
  %25 = getelementptr inbounds nuw [16 x ptr], ptr %7, i64 0, i64 %indvars.iv
  %26 = load ptr, ptr %25, align 8, !tbaa !7
  tail call void @CRYPTO_free(ptr noundef %26, ptr noundef nonnull @.str.7, i32 noundef 91) #10
  store ptr null, ptr %25, align 8, !tbaa !7
  %27 = getelementptr inbounds nuw [16 x ptr], ptr %10, i64 0, i64 %indvars.iv
  %28 = load ptr, ptr %27, align 8, !tbaa !7
  tail call void @CRYPTO_free(ptr noundef %28, ptr noundef nonnull @.str.7, i32 noundef 93) #10
  store ptr null, ptr %27, align 8, !tbaa !7
  %indvars.iv.next = add nuw nsw i64 %indvars.iv, 1
  %exitcond.not = icmp eq i64 %indvars.iv.next, 16
  br i1 %exitcond.not, label %29, label %11, !llvm.loop !23

29:                                               ; preds = %err_clear.exit
  %30 = getelementptr inbounds nuw i8, ptr %1, i64 900
  store i32 0, ptr %30, align 4, !tbaa !24
  %31 = getelementptr inbounds nuw i8, ptr %1, i64 896
  store i32 0, ptr %31, align 8, !tbaa !26
  br label %32

32:                                               ; preds = %0, %29
  ret void
}